target datalayout = "e-m:e-p270:32:32-p271:32:32-p272:64:64-i64:64-i128:128-f80:128-n8:16:32:64-S128"
target triple = "x86_64-pc-linux-gnu"

%struct.cpool = type { %struct.Curl_hash, i64, i64, i64, %struct.curltime, %struct.Curl_llist, ptr, ptr, ptr, ptr, i8 }
%struct.Curl_hash = type { ptr, ptr, ptr, ptr, i64, i64 }
%struct.curltime = type { i64, i32 }
%struct.Curl_llist = type { ptr, ptr, ptr, i64 }
%struct.easy_pollset = type { [5 x i32], i32, [5 x i8] }
%struct.Curl_share = type { i32, i32, i32, ptr, ptr, ptr, %struct.cpool, %struct.Curl_hash, ptr, %struct.PslCache, ptr, ptr }
%struct.PslCache = type { ptr, i64, i8 }
%struct.fd_set = type { [16 x i64] }

; Function Attrs: nounwind uwtable
define hidden void @Curl_cpool_setfds(ptr noundef %0, ptr noundef %1, ptr noundef %2, ptr noundef %3) #0 {
  %5 = alloca ptr, align 8
  %6 = alloca ptr, align 8
  %7 = alloca ptr, align 8
  %8 = alloca ptr, align 8
  %9 = alloca ptr, align 8
  %10 = alloca %struct.easy_pollset, align 4
  %11 = alloca i32, align 4
  %12 = alloca ptr, align 8
  store ptr %0, ptr %5, align 8, !tbaa !3
  store ptr %1, ptr %6, align 8, !tbaa !8
  store ptr %2, ptr %7, align 8, !tbaa !8
  store ptr %3, ptr %8, align 8, !tbaa !157
  br label %13

13:                                               ; preds = %4
  %14 = load ptr, ptr %5, align 8, !tbaa !3
  %15 = icmp ne ptr %14, null
  br i1 %15, label %16, label %42

16:                                               ; preds = %13
  %17 = load ptr, ptr %5, align 8, !tbaa !3
  %18 = getelementptr inbounds nuw %struct.cpool, ptr %17, i32 0, i32 8
  %19 = load ptr, ptr %18, align 8, !tbaa !87
  %20 = icmp ne ptr %19, null
  br i1 %20, label %21, label %34

21:                                               ; preds = %16
  %22 = load ptr, ptr %5, align 8, !tbaa !3
  %23 = getelementptr inbounds nuw %struct.cpool, ptr %22, i32 0, i32 8
  %24 = load ptr, ptr %23, align 8, !tbaa !87
  %25 = getelementptr inbounds nuw %struct.Curl_share, ptr %24, i32 0, i32 1
  %26 = load i32, ptr %25, align 4, !tbaa !90
  %27 = and i32 %26, 32
  %28 = icmp ne i32 %27, 0
  br i1 %28, label %29, label %34

29:                                               ; preds = %21
  %30 = load ptr, ptr %5, align 8, !tbaa !3
  %31 = getelementptr inbounds nuw %struct.cpool, ptr %30, i32 0, i32 6
  %32 = load ptr, ptr %31, align 8, !tbaa !15
  %33 = call i32 @Curl_share_lock(ptr noundef %32, i32 noundef 5, i32 noundef 2)
  br label %34

34:                                               ; preds = %29, %21, %16
  br label %35

35:                                               ; preds = %34
  br label %36

36:                                               ; preds = %35
  %37 = load ptr, ptr %5, align 8, !tbaa !3
  %38 = getelementptr inbounds nuw %struct.cpool, ptr %37, i32 0, i32 10
  %39 = load i8, ptr %38, align 8
  %40 = and i8 %39, -2
  %41 = or i8 %40, 1
  store i8 %41, ptr %38, align 8
  br label %42

42:                                               ; preds = %36, %13
  br label %43

43:                                               ; preds = %42
  %44 = load ptr, ptr %5, align 8, !tbaa !3
  %45 = getelementptr inbounds nuw %struct.cpool, ptr %44, i32 0, i32 5
  %46 = call ptr @Curl_llist_head(ptr noundef %45)
  %47 = icmp ne ptr %46, null
  br i1 %47, label %48, label %167

48:                                               ; preds = %43
  call void @llvm.lifetime.start.p0(i64 8, ptr %9) #7
  %49 = load ptr, ptr %5, align 8, !tbaa !3
  %50 = getelementptr inbounds nuw %struct.cpool, ptr %49, i32 0, i32 5
  %51 = call ptr @Curl_llist_head(ptr noundef %50)
  store ptr %51, ptr %9, align 8, !tbaa !125
  br label %52

52:                                               ; preds = %163, %48
  %53 = load ptr, ptr %9, align 8, !tbaa !125
  %54 = icmp ne ptr %53, null
  br i1 %54, label %55, label %166

55:                                               ; preds = %52
  call void @llvm.lifetime.start.p0(i64 32, ptr %10) #7
  call void @llvm.lifetime.start.p0(i64 4, ptr %11) #7
  call void @llvm.lifetime.start.p0(i64 8, ptr %12) #7
  %56 = load ptr, ptr %9, align 8, !tbaa !125
  %57 = call ptr @Curl_node_elem(ptr noundef %56)
  store ptr %57, ptr %12, align 8, !tbaa !95
  call void @llvm.memset.p0.i64(ptr align 4 %10, i8 0, i64 32, i1 false)
  %58 = load ptr, ptr %5, align 8, !tbaa !3
  %59 = getelementptr inbounds nuw %struct.cpool, ptr %58, i32 0, i32 6
  %60 = load ptr, ptr %59, align 8, !tbaa !15
  %61 = load ptr, ptr %12, align 8, !tbaa !95
  call void @Curl_attach_connection(ptr noundef %60, ptr noundef %61)
  %62 = load ptr, ptr %5, align 8, !tbaa !3
  %63 = getelementptr inbounds nuw %struct.cpool, ptr %62, i32 0, i32 6
  %64 = load ptr, ptr %63, align 8, !tbaa !15
  call void @Curl_conn_adjust_pollset(ptr noundef %64, ptr noundef %10)
  %65 = load ptr, ptr %5, align 8, !tbaa !3
  %66 = getelementptr inbounds nuw %struct.cpool, ptr %65, i32 0, i32 6
  %67 = load ptr, ptr %66, align 8, !tbaa !15
  call void @Curl_detach_connection(ptr noundef %67)
  store i32 0, ptr %11, align 4, !tbaa !89
  br label %68

68:                                               ; preds = %159, %55
  %69 = load i32, ptr %11, align 4, !tbaa !89
  %70 = getelementptr inbounds nuw %struct.easy_pollset, ptr %10, i32 0, i32 1
  %71 = load i32, ptr %70, align 4, !tbaa !159
  %72 = icmp ult i32 %69, %71
  br i1 %72, label %73, label %162

73:                                               ; preds = %68
  %74 = getelementptr inbounds nuw %struct.easy_pollset, ptr %10, i32 0, i32 2
  %75 = load i32, ptr %11, align 4, !tbaa !89
  %76 = zext i32 %75 to i64
  %77 = getelementptr inbounds nuw [5 x i8], ptr %74, i64 0, i64 %76
  %78 = load i8, ptr %77, align 1, !tbaa !160
  %79 = zext i8 %78 to i32
  %80 = and i32 %79, 1
  %81 = icmp ne i32 %80, 0
  br i1 %81, label %82, label %103

82:                                               ; preds = %73
  %83 = getelementptr inbounds nuw %struct.easy_pollset, ptr %10, i32 0, i32 0
  %84 = load i32, ptr %11, align 4, !tbaa !89
  %85 = zext i32 %84 to i64
  %86 = getelementptr inbounds nuw [5 x i32], ptr %83, i64 0, i64 %85
  %87 = load i32, ptr %86, align 4, !tbaa !89
  %88 = srem i32 %87, 64
  %89 = zext i32 %88 to i64
  %90 = shl i64 1, %89
  %91 = load ptr, ptr %6, align 8, !tbaa !8
  %92 = getelementptr inbounds nuw %struct.fd_set, ptr %91, i32 0, i32 0
  %93 = getelementptr inbounds nuw %struct.easy_pollset, ptr %10, i32 0, i32 0
  %94 = load i32, ptr %11, align 4, !tbaa !89
  %95 = zext i32 %94 to i64
  %96 = getelementptr inbounds nuw [5 x i32], ptr %93, i64 0, i64 %95
  %97 = load i32, ptr %96, align 4, !tbaa !89
  %98 = sdiv i32 %97, 64
  %99 = sext i32 %98 to i64
  %100 = getelementptr inbounds [16 x i64], ptr %92, i64 0, i64 %99
  %101 = load i64, ptr %100, align 8, !tbaa !13
  %102 = or i64 %101, %90
  store i64 %102, ptr %100, align 8, !tbaa !13
  br label %103

103:                                              ; preds = %82, %73
  %104 = getelementptr inbounds nuw %struct.easy_pollset, ptr %10, i32 0, i32 2
  %105 = load i32, ptr %11, align 4, !tbaa !89
  %106 = zext i32 %105 to i64
  %107 = getelementptr inbounds nuw [5 x i8], ptr %104, i64 0, i64 %106
  %108 = load i8, ptr %107, align 1, !tbaa !160
  %109 = zext i8 %108 to i32
  %110 = and i32 %109, 2
  %111 = icmp ne i32 %110, 0
  br i1 %111, label %112, label %133

112:                                              ; preds = %103
  %113 = getelementptr inbounds nuw %struct.easy_pollset, ptr %10, i32 0, i32 0
  %114 = load i32, ptr %11, align 4, !tbaa !89
  %115 = zext i32 %114 to i64
  %116 = getelementptr inbounds nuw [5 x i32], ptr %113, i64 0, i64 %115
  %117 = load i32, ptr %116, align 4, !tbaa !89
  %118 = srem i32 %117, 64
  %119 = zext i32 %118 to i64
  %120 = shl i64 1, %119
  %121 = load ptr, ptr %7, align 8, !tbaa !8
  %122 = getelementptr inbounds nuw %struct.fd_set, ptr %121, i32 0, i32 0
  %123 = getelementptr inbounds nuw %struct.easy_pollset, ptr %10, i32 0, i32 0
  %124 = load i32, ptr %11, align 4, !tbaa !89
  %125 = zext i32 %124 to i64
  %126 = getelementptr inbounds nuw [5 x i32], ptr %123, i64 0, i64 %125
  %127 = load i32, ptr %126, align 4, !tbaa !89
  %128 = sdiv i32 %127, 64
  %129 = sext i32 %128 to i64
  %130 = getelementptr inbounds [16 x i64], ptr %122, i64 0, i64 %129
  %131 = load i64, ptr %130, align 8, !tbaa !13
  %132 = or i64 %131, %120
  store i64 %132, ptr %130, align 8, !tbaa !13
  br label %133

133:                                              ; preds = %112, %103
  %134 = getelementptr inbounds nuw %struct.easy_pollset, ptr %10, i32 0, i32 2
  %135 = load i32, ptr %11, align 4, !tbaa !89
  %136 = zext i32 %135 to i64
  %137 = getelementptr inbounds nuw [5 x i8], ptr %134, i64 0, i64 %136
  %138 = load i8, ptr %137, align 1, !tbaa !160
  %139 = zext i8 %138 to i32
  %140 = and i32 %139, 3
  %141 = icmp ne i32 %140, 0
  br i1 %141, label %142, label %158

142:                                              ; preds = %133
  %143 = getelementptr inbounds nuw %struct.easy_pollset, ptr %10, i32 0, i32 0
  %144 = load i32, ptr %11, align 4, !tbaa !89
  %145 = zext i32 %144 to i64
  %146 = getelementptr inbounds nuw [5 x i32], ptr %143, i64 0, i64 %145
  %147 = load i32, ptr %146, align 4, !tbaa !89
  %148 = load ptr, ptr %8, align 8, !tbaa !157
  %149 = load i32, ptr %148, align 4, !tbaa !89
  %150 = icmp sgt i32 %147, %149
  br i1 %150, label %151, label %158

151:                                              ; preds = %142
  %152 = getelementptr inbounds nuw %struct.easy_pollset, ptr %10, i32 0, i32 0
  %153 = load i32, ptr %11, align 4, !tbaa !89
  %154 = zext i32 %153 to i64
  %155 = getelementptr inbounds nuw [5 x i32], ptr %152, i64 0, i64 %154
  %156 = load i32, ptr %155, align 4, !tbaa !89
  %157 = load ptr, ptr %8, align 8, !tbaa !157
  store i32 %156, ptr %157, align 4, !tbaa !89
  br label %158

158:                                              ; preds = %151, %142, %133
  br label %159

159:                                              ; preds = %158
  %160 = load i32, ptr %11, align 4, !tbaa !89
  %161 = add i32 %160, 1
  store i32 %161, ptr %11, align 4, !tbaa !89
  br label %68, !llvm.loop !161

162:                                              ; preds = %68
  call void @llvm.lifetime.end.p0(i64 8, ptr %12) #7
  call void @llvm.lifetime.end.p0(i64 4, ptr %11) #7
  call void @llvm.lifetime.end.p0(i64 32, ptr %10) #7
  br label %163

163:                                              ; preds = %162
  %164 = load ptr, ptr %9, align 8, !tbaa !125
  %165 = call ptr @Curl_node_next(ptr noundef %164)
  store ptr %165, ptr %9, align 8, !tbaa !125
  br label %52, !llvm.loop !162

166:                                              ; preds = %52
  call void @llvm.lifetime.end.p0(i64 8, ptr %9) #7
  br label %167

167:                                              ; preds = %166, %43
  br label %168

168:                                              ; preds = %167
  %169 = load ptr, ptr %5, align 8, !tbaa !3
  %170 = icmp ne ptr %169, null
  br i1 %170, label %171, label %197

171:                                              ; preds = %168
  br label %172

172:                                              ; preds = %171
  br label %173

173:                                              ; preds = %172
  %174 = load ptr, ptr %5, align 8, !tbaa !3
  %175 = getelementptr inbounds nuw %struct.cpool, ptr %174, i32 0, i32 10
  %176 = load i8, ptr %175, align 8
  %177 = and i8 %176, -2
  %178 = or i8 %177, 0
  store i8 %178, ptr %175, align 8
  %179 = load ptr, ptr %5, align 8, !tbaa !3
  %180 = getelementptr inbounds nuw %struct.cpool, ptr %179, i32 0, i32 8
  %181 = load ptr, ptr %180, align 8, !tbaa !87
  %182 = icmp ne ptr %181, null
  br i1 %182, label %183, label %196

183:                                              ; preds = %173
  %184 = load ptr, ptr %5, align 8, !tbaa !3
  %185 = getelementptr inbounds nuw %struct.cpool, ptr %184, i32 0, i32 8
  %186 = load ptr, ptr %185, align 8, !tbaa !87
  %187 = getelementptr inbounds nuw %struct.Curl_share, ptr %186, i32 0, i32 1
  %188 = load i32, ptr %187, align 4, !tbaa !90
  %189 = and i32 %188, 32
  %190 = icmp ne i32 %189, 0
  br i1 %190, label %191, label %196

191:                                              ; preds = %183
  %192 = load ptr, ptr %5, align 8, !tbaa !3
  %193 = getelementptr inbounds nuw %struct.cpool, ptr %192, i32 0, i32 6
  %194 = load ptr, ptr %193, align 8, !tbaa !15
  %195 = call i32 @Curl_share_unlock(ptr noundef %194, i32 noundef 5)
  br label %196

196:                                              ; preds = %191, %183, %173
  br label %197

197:                                              ; preds = %196, %168
  br label %198

198:                                              ; preds = %197
  ret void
}