; Function Attrs: nounwind uwtable
define hidden void @Curl_cpool_setfds(ptr noundef %0, ptr noundef captures(none) %1, ptr noundef captures(none) %2, ptr noundef captures(none) %3) local_unnamed_addr #0 {
  %5 = alloca %struct.easy_pollset, align 4
  %.not = icmp eq ptr %0, null
  br i1 %.not, label %21, label %6

6:                                                ; preds = %4
  %7 = getelementptr inbounds nuw i8, ptr %0, i64 136
  %8 = load ptr, ptr %7, align 8, !tbaa !81
  %.not38 = icmp eq ptr %8, null
  br i1 %.not38, label %17, label %9

9:                                                ; preds = %6
  %10 = getelementptr inbounds nuw i8, ptr %8, i64 4
  %11 = load i32, ptr %10, align 4, !tbaa !89
  %12 = and i32 %11, 32
  %.not39 = icmp eq i32 %12, 0
  br i1 %.not39, label %17, label %13

13:                                               ; preds = %9
  %14 = getelementptr inbounds nuw i8, ptr %0, i64 120
  %15 = load ptr, ptr %14, align 8, !tbaa !3
  %16 = tail call i32 @Curl_share_lock(ptr noundef %15, i32 noundef 5, i32 noundef 2) #8
  br label %17

17:                                               ; preds = %13, %9, %6
  %18 = getelementptr inbounds nuw i8, ptr %0, i64 152
  %19 = load i8, ptr %18, align 8
  %20 = or i8 %19, 1
  store i8 %20, ptr %18, align 8
  br label %21

21:                                               ; preds = %4, %17
  %22 = getelementptr inbounds nuw i8, ptr %0, i64 88
  %23 = tail call ptr @Curl_llist_head(ptr noundef nonnull %22) #8
  %.not40 = icmp eq ptr %23, null
  br i1 %.not40, label %.thread, label %24

24:                                               ; preds = %21
  %25 = tail call ptr @Curl_llist_head(ptr noundef nonnull %22) #8
  %.not4148 = icmp eq ptr %25, null
  br i1 %.not4148, label %.thread, label %.lr.ph51

.lr.ph51:                                         ; preds = %24
  %26 = getelementptr inbounds nuw i8, ptr %0, i64 120
  %27 = getelementptr inbounds nuw i8, ptr %5, i64 20
  %28 = getelementptr inbounds nuw i8, ptr %5, i64 24
  br label %29

29:                                               ; preds = %.lr.ph51, %._crit_edge
  %.049 = phi ptr [ %25, %.lr.ph51 ], [ %71, %._crit_edge ]
  call void @llvm.lifetime.start.p0(i64 32, ptr nonnull %5) #8
  %30 = call ptr @Curl_node_elem(ptr noundef nonnull %.049) #8
  call void @llvm.memset.p0.i64(ptr noundef nonnull align 4 dereferenceable(32) %5, i8 0, i64 32, i1 false)
  %31 = load ptr, ptr %26, align 8, !tbaa !3
  call void @Curl_attach_connection(ptr noundef %31, ptr noundef %30) #8
  %32 = load ptr, ptr %26, align 8, !tbaa !3
  call void @Curl_conn_adjust_pollset(ptr noundef %32, ptr noundef nonnull %5) #8
  %33 = load ptr, ptr %26, align 8, !tbaa !3
  call void @Curl_detach_connection(ptr noundef %33) #8
  %34 = load i32, ptr %27, align 4, !tbaa !153
  %.not53 = icmp eq i32 %34, 0
  br i1 %.not53, label %._crit_edge, label %.lr.ph.preheader

.lr.ph.preheader:                                 ; preds = %29
  %wide.trip.count = zext i32 %34 to i64
  br label %.lr.ph

.lr.ph:                                           ; preds = %.lr.ph.preheader, %70
  %indvars.iv = phi i64 [ 0, %.lr.ph.preheader ], [ %indvars.iv.next, %70 ]
  %35 = getelementptr inbounds nuw [5 x i8], ptr %28, i64 0, i64 %indvars.iv
  %36 = load i8, ptr %35, align 1, !tbaa !113
  %37 = and i8 %36, 1
  %.not44 = icmp eq i8 %37, 0
  br i1 %.not44, label %49, label %38

38:                                               ; preds = %.lr.ph
  %39 = getelementptr inbounds nuw [5 x i32], ptr %5, i64 0, i64 %indvars.iv
  %40 = load i32, ptr %39, align 4, !tbaa !114
  %41 = srem i32 %40, 64
  %42 = zext nneg i32 %41 to i64
  %43 = shl nuw i64 1, %42
  %44 = sdiv i32 %40, 64
  %45 = sext i32 %44 to i64
  %46 = getelementptr inbounds [16 x i64], ptr %1, i64 0, i64 %45
  %47 = load i64, ptr %46, align 8, !tbaa !144
  %48 = or i64 %43, %47
  store i64 %48, ptr %46, align 8, !tbaa !144
  br label %49

49:                                               ; preds = %38, %.lr.ph
  %50 = and i8 %36, 2
  %.not45 = icmp eq i8 %50, 0
  br i1 %.not45, label %62, label %51

51:                                               ; preds = %49
  %52 = getelementptr inbounds nuw [5 x i32], ptr %5, i64 0, i64 %indvars.iv
  %53 = load i32, ptr %52, align 4, !tbaa !114
  %54 = srem i32 %53, 64
  %55 = zext nneg i32 %54 to i64
  %56 = shl nuw i64 1, %55
  %57 = sdiv i32 %53, 64
  %58 = sext i32 %57 to i64
  %59 = getelementptr inbounds [16 x i64], ptr %2, i64 0, i64 %58
  %60 = load i64, ptr %59, align 8, !tbaa !144
  %61 = or i64 %56, %60
  store i64 %61, ptr %59, align 8, !tbaa !144
  br label %62

62:                                               ; preds = %51, %49
  %63 = and i8 %36, 3
  %.not46 = icmp eq i8 %63, 0
  br i1 %.not46, label %70, label %64

64:                                               ; preds = %62
  %65 = getelementptr inbounds nuw [5 x i32], ptr %5, i64 0, i64 %indvars.iv
  %66 = load i32, ptr %65, align 4, !tbaa !114
  %67 = load i32, ptr %3, align 4, !tbaa !114
  %68 = icmp sgt i32 %66, %67
  br i1 %68, label %69, label %70

69:                                               ; preds = %64
  store i32 %66, ptr %3, align 4, !tbaa !114
  br label %70

70:                                               ; preds = %62, %64, %69
  %indvars.iv.next = add nuw nsw i64 %indvars.iv, 1
  %exitcond.not = icmp eq i64 %indvars.iv.next, %wide.trip.count
  br i1 %exitcond.not, label %._crit_edge, label %.lr.ph, !llvm.loop !154

._crit_edge:                                      ; preds = %70, %29
  call void @llvm.lifetime.end.p0(i64 32, ptr nonnull %5) #8
  %71 = call ptr @Curl_node_next(ptr noundef nonnull %.049) #8
  %.not41 = icmp eq ptr %71, null
  br i1 %.not41, label %._crit_edge52, label %29, !llvm.loop !155

._crit_edge52:                                    ; preds = %._crit_edge
  br i1 %.not, label %85, label %.thread

.thread:                                          ; preds = %24, %21, %._crit_edge52
  %72 = getelementptr inbounds nuw i8, ptr %0, i64 152
  %73 = load i8, ptr %72, align 8
  %74 = and i8 %73, -2
  store i8 %74, ptr %72, align 8
  %75 = getelementptr inbounds nuw i8, ptr %0, i64 136
  %76 = load ptr, ptr %75, align 8, !tbaa !81
  %.not42 = icmp eq ptr %76, null
  br i1 %.not42, label %85, label %77

77:                                               ; preds = %.thread
  %78 = getelementptr inbounds nuw i8, ptr %76, i64 4
  %79 = load i32, ptr %78, align 4, !tbaa !89
  %80 = and i32 %79, 32
  %.not43 = icmp eq i32 %80, 0
  br i1 %.not43, label %85, label %81

81:                                               ; preds = %77
  %82 = getelementptr inbounds nuw i8, ptr %0, i64 120
  %83 = load ptr, ptr %82, align 8, !tbaa !3
  %84 = call i32 @Curl_share_unlock(ptr noundef %83, i32 noundef 5) #8
  br label %85

85:                                               ; preds = %._crit_edge52, %81, %77, %.thread
  ret void
}